target datalayout = "e-m:e-p270:32:32-p271:32:32-p272:64:64-i64:64-i128:128-f80:128-n8:16:32:64-S128"
target triple = "x86_64-pc-linux-gnu"

%struct.mbedtls_psa_mac_operation_t = type { i32, %union.anon }
%union.anon = type { %struct.mbedtls_psa_hmac_operation_t }
%struct.mbedtls_psa_hmac_operation_t = type { i32, %struct.psa_hash_operation_s, [144 x i8] }
%struct.psa_hash_operation_s = type { i32, %union.psa_driver_hash_context_t }
%union.psa_driver_hash_context_t = type { %struct.mbedtls_psa_hash_operation_t }
%struct.mbedtls_psa_hash_operation_t = type { i32, %union.anon.0 }
%union.anon.0 = type { %struct.mbedtls_sha512_context }
%struct.mbedtls_sha512_context = type { [2 x i64], [8 x i64], [128 x i8], i32 }

; Function Attrs: nounwind uwtable
define internal i32 @psa_hmac_abort_internal(ptr noundef %0) #0 {
  %2 = alloca ptr, align 8
  store ptr %0, ptr %2, align 8, !tbaa !3
  %3 = load ptr, ptr %2, align 8, !tbaa !3
  %4 = getelementptr inbounds nuw %struct.mbedtls_psa_hmac_operation_t, ptr %3, i32 0, i32 2
  %5 = getelementptr inbounds [144 x i8], ptr %4, i64 0, i64 0
  call void @mbedtls_platform_zeroize(ptr noundef %5, i64 noundef 144)
  %6 = load ptr, ptr %2, align 8, !tbaa !3
  %7 = getelementptr inbounds nuw %struct.mbedtls_psa_hmac_operation_t, ptr %6, i32 0, i32 1
  %8 = call i32 @psa_hash_abort(ptr noundef %7)
  ret i32 %8
}

; Function Attrs: nounwind uwtable
define hidden i32 @mbedtls_psa_mac_abort(ptr noundef %0) #0 {
  %2 = alloca i32, align 4
  %3 = alloca ptr, align 8
  store ptr %0, ptr %3, align 8, !tbaa !3
  %4 = load ptr, ptr %3, align 8, !tbaa !3
  %5 = getelementptr inbounds nuw %struct.mbedtls_psa_mac_operation_t, ptr %4, i32 0, i32 0
  %6 = load i32, ptr %5, align 8, !tbaa !7
  %7 = icmp eq i32 %6, 0
  br i1 %7, label %8, label %9

8:                                                ; preds = %1
  store i32 0, ptr %2, align 4
  br label %36

9:                                                ; preds = %1
  %10 = load ptr, ptr %3, align 8, !tbaa !3
  %11 = getelementptr inbounds nuw %struct.mbedtls_psa_mac_operation_t, ptr %10, i32 0, i32 0
  %12 = load i32, ptr %11, align 8, !tbaa !7
  %13 = and i32 %12, -4161537
  %14 = icmp eq i32 %13, 62915072
  br i1 %14, label %15, label %18

15:                                               ; preds = %9
  %16 = load ptr, ptr %3, align 8, !tbaa !3
  %17 = getelementptr inbounds nuw %struct.mbedtls_psa_mac_operation_t, ptr %16, i32 0, i32 1
  call void @mbedtls_cipher_free(ptr noundef %17)
  br label %30

18:                                               ; preds = %9
  %19 = load ptr, ptr %3, align 8, !tbaa !3
  %20 = getelementptr inbounds nuw %struct.mbedtls_psa_mac_operation_t, ptr %19, i32 0, i32 0
  %21 = load i32, ptr %20, align 8, !tbaa !7
  %22 = and i32 %21, 2143289344
  %23 = icmp eq i32 %22, 58720256
  br i1 %23, label %24, label %28

24:                                               ; preds = %18
  %25 = load ptr, ptr %3, align 8, !tbaa !3
  %26 = getelementptr inbounds nuw %struct.mbedtls_psa_mac_operation_t, ptr %25, i32 0, i32 1
  %27 = call i32 @psa_hmac_abort_internal(ptr noundef %26)
  br label %29

28:                                               ; preds = %18
  br label %34

29:                                               ; preds = %24
  br label %30

30:                                               ; preds = %29, %15
  br label %31

31:                                               ; preds = %30
  %32 = load ptr, ptr %3, align 8, !tbaa !3
  %33 = getelementptr inbounds nuw %struct.mbedtls_psa_mac_operation_t, ptr %32, i32 0, i32 0
  store i32 0, ptr %33, align 8, !tbaa !7
  store i32 0, ptr %2, align 4
  br label %36

34:                                               ; preds = %28
  %35 = load ptr, ptr %3, align 8, !tbaa !3
  call void @llvm.memset.p0.i64(ptr align 8 %35, i8 0, i64 392, i1 false)
  store i32 -137, ptr %2, align 4
  br label %36

36:                                               ; preds = %34, %31, %8
  %37 = load i32, ptr %2, align 4
  ret i32 %37
}