; Function Attrs: nounwind uwtable
define hidden range(i32 -137, 1) i32 @mbedtls_psa_mac_abort(ptr noundef %0) local_unnamed_addr #0 {
  %2 = load i32, ptr %0, align 8, !tbaa !3
  %3 = icmp eq i32 %2, 0
  br i1 %3, label %18, label %4

4:                                                ; preds = %1
  %5 = and i32 %2, -4161537
  %6 = icmp eq i32 %5, 62915072
  br i1 %6, label %7, label %9

7:                                                ; preds = %4
  %8 = getelementptr inbounds nuw i8, ptr %0, i64 8
  tail call void @mbedtls_cipher_free(ptr noundef nonnull %8) #5
  br label %16

9:                                                ; preds = %4
  %10 = and i32 %2, 2143289344
  %11 = icmp eq i32 %10, 58720256
  br i1 %11, label %12, label %17

12:                                               ; preds = %9
  %13 = getelementptr inbounds nuw i8, ptr %0, i64 248
  tail call void @mbedtls_platform_zeroize(ptr noundef nonnull %13, i64 noundef 144) #5
  %14 = getelementptr inbounds nuw i8, ptr %0, i64 16
  %15 = tail call i32 @psa_hash_abort(ptr noundef nonnull %14) #5
  br label %16

16:                                               ; preds = %7, %12
  store i32 0, ptr %0, align 8, !tbaa !3
  br label %18

17:                                               ; preds = %9
  tail call void @llvm.memset.p0.i64(ptr noundef nonnull align 8 dereferenceable(392) %0, i8 0, i64 392, i1 false)
  br label %18

18:                                               ; preds = %1, %17, %16
  %.0 = phi i32 [ 0, %16 ], [ -137, %17 ], [ 0, %1 ]
  ret i32 %.0
}